target datalayout = "e-m:e-p270:32:32-p271:32:32-p272:64:64-i64:64-i128:128-f80:128-n8:16:32:64-S128"
target triple = "x86_64-unknown-linux-gnu"

%"class.icu_75::UObject" = type { ptr }
%"class.icu_75::DateFormat" = type { %"class.icu_75::Format.base", ptr, ptr, %"class.icu_75::EnumSet", i32 }
%"class.icu_75::Format.base" = type <{ %"class.icu_75::UObject", [157 x i8], [157 x i8] }>
%"class.icu_75::EnumSet" = type { i32 }

; Function Attrs: mustprogress uwtable
define void @_ZN6icu_7510DateFormat18setCalendarLenientEa(ptr noundef nonnull align 8 dereferenceable(352) %this, i8 noundef signext %lenient) unnamed_addr #2 align 2 {
entry:
  %this.addr = alloca ptr, align 8
  %lenient.addr = alloca i8, align 1
  store ptr %this, ptr %this.addr, align 8
  store i8 %lenient, ptr %lenient.addr, align 1
  %this1 = load ptr, ptr %this.addr, align 8
  %fCalendar = getelementptr inbounds %"class.icu_75::DateFormat", ptr %this1, i32 0, i32 1
  %0 = load ptr, ptr %fCalendar, align 8
  %cmp = icmp ne ptr %0, null
  br i1 %cmp, label %if.then, label %if.end

if.then:                                          ; preds = %entry
  %fCalendar2 = getelementptr inbounds %"class.icu_75::DateFormat", ptr %this1, i32 0, i32 1
  %1 = load ptr, ptr %fCalendar2, align 8
  %2 = load i8, ptr %lenient.addr, align 1
  call void @_ZN6icu_758Calendar10setLenientEa(ptr noundef nonnull align 8 dereferenceable(618) %1, i8 noundef signext %2)
  br label %if.end

if.end:                                           ; preds = %if.then, %entry
  ret void
}